target datalayout = "e-m:e-p270:32:32-p271:32:32-p272:64:64-i64:64-i128:128-f80:128-n8:16:32:64-S128"
target triple = "x86_64-pc-linux-gnu"

%"class.llvm::StringRef" = type { ptr, i64 }
%"class.llvm::cl::OptionCategory" = type { %"class.llvm::StringRef", %"class.llvm::StringRef" }
%"struct.std::atomic" = type { %"struct.std::__atomic_base" }
%"struct.std::__atomic_base" = type { ptr }
%"class.llvm::cl::Option" = type { ptr, i16, i16, i16, i16, %"class.llvm::StringRef", %"class.llvm::StringRef", %"class.llvm::StringRef", %"class.llvm::SmallVector", %"class.llvm::SmallPtrSet" }
%"class.llvm::SmallVector" = type { %"class.llvm::SmallVectorImpl", %"struct.llvm::SmallVectorStorage" }
%"class.llvm::SmallVectorImpl" = type { %"class.llvm::SmallVectorTemplateBase" }
%"class.llvm::SmallVectorTemplateBase" = type { %"class.llvm::SmallVectorTemplateCommon" }
%"class.llvm::SmallVectorTemplateCommon" = type { %"class.llvm::SmallVectorBase" }
%"class.llvm::SmallVectorBase" = type { ptr, i32, i32 }
%"struct.llvm::SmallVectorStorage" = type { [8 x i8] }
%"class.llvm::SmallPtrSet" = type { %"class.llvm::SmallPtrSetImpl.base", [1 x ptr] }
%"class.llvm::SmallPtrSetImpl.base" = type { %"class.llvm::SmallPtrSetImplBase.base" }
%"class.llvm::SmallPtrSetImplBase.base" = type <{ ptr, ptr, i32, i32, i32 }>
%"struct.llvm::cl::GenericOptionValue" = type { ptr }
%"class.llvm::cl::basic_parser_impl" = type { ptr }
%"class.std::_Function_base" = type { %"union.std::_Any_data", ptr }
%"union.std::_Any_data" = type { %"union.std::_Nocopy_types" }
%"union.std::_Nocopy_types" = type { { i64, i64 } }
%"class.llvm::cl::opt.48" = type { %"class.llvm::cl::Option", %"class.llvm::cl::opt_storage.49", %"class.llvm::cl::parser.56", %"class.std::function.57" }
%"class.llvm::cl::opt_storage.49" = type { i8, [7 x i8], %"struct.llvm::cl::OptionValue.50" }
%"struct.llvm::cl::OptionValue.50" = type { %"struct.llvm::cl::OptionValueBase.base.54", [6 x i8] }
%"struct.llvm::cl::OptionValueBase.base.54" = type { %"class.llvm::cl::OptionValueCopy.base.53" }
%"class.llvm::cl::OptionValueCopy.base.53" = type <{ %"struct.llvm::cl::GenericOptionValue", i8, i8 }>
%"class.llvm::cl::parser.56" = type { %"class.llvm::cl::basic_parser" }
%"class.llvm::cl::basic_parser" = type { %"class.llvm::cl::basic_parser_impl" }
%"class.std::function.57" = type { %"class.std::_Function_base", ptr }
%"class.llvm::ManagedStaticBase" = type { %"struct.std::atomic", ptr, ptr }
%"struct.(anonymous namespace)::CommandLineCommonOptions" = type { %"class.(anonymous namespace)::HelpPrinter", %"class.(anonymous namespace)::HelpPrinter", %"class.(anonymous namespace)::CategorizedHelpPrinter", %"class.(anonymous namespace)::CategorizedHelpPrinter", %"class.(anonymous namespace)::HelpPrinterWrapper", %"class.(anonymous namespace)::HelpPrinterWrapper", %"class.llvm::cl::OptionCategory", %"class.llvm::cl::opt.185", %"class.llvm::cl::opt.185", %"class.llvm::cl::opt.189", %"class.llvm::cl::alias", %"class.llvm::cl::opt.189", %"class.llvm::cl::opt.48", %"class.llvm::cl::opt.48", %"class.std::function.193", %"class.std::vector.196", [8 x i8], %"class.llvm::cl::opt.201" }
%"class.(anonymous namespace)::HelpPrinter" = type <{ ptr, i8, [7 x i8] }>
%"class.(anonymous namespace)::CategorizedHelpPrinter" = type { %"class.(anonymous namespace)::HelpPrinter.base", [7 x i8] }
%"class.(anonymous namespace)::HelpPrinter.base" = type <{ ptr, i8 }>
%"class.(anonymous namespace)::HelpPrinterWrapper" = type { ptr, ptr }
%"class.llvm::cl::opt.185" = type { %"class.llvm::cl::Option", %"class.llvm::cl::opt_storage.186", %"class.llvm::cl::parser.56", %"class.std::function.57" }
%"class.llvm::cl::opt_storage.186" = type { ptr, %"struct.llvm::cl::OptionValue.187" }
%"struct.llvm::cl::OptionValue.187" = type { %"struct.llvm::cl::OptionValueBase.188" }
%"struct.llvm::cl::OptionValueBase.188" = type { %"struct.llvm::cl::GenericOptionValue" }
%"class.llvm::cl::alias" = type { %"class.llvm::cl::Option", ptr }
%"class.llvm::cl::opt.189" = type { %"class.llvm::cl::Option", %"class.llvm::cl::opt_storage.190", %"class.llvm::cl::parser.56", %"class.std::function.57" }
%"class.llvm::cl::opt_storage.190" = type { ptr, %"struct.llvm::cl::OptionValue.191" }
%"struct.llvm::cl::OptionValue.191" = type { %"struct.llvm::cl::OptionValueBase.192" }
%"struct.llvm::cl::OptionValueBase.192" = type { %"struct.llvm::cl::GenericOptionValue" }
%"class.std::function.193" = type { %"class.std::_Function_base", ptr }
%"class.std::vector.196" = type { %"struct.std::_Vector_base.197" }
%"struct.std::_Vector_base.197" = type { %"struct.std::_Vector_base<std::function<void (llvm::raw_ostream &)>, std::allocator<std::function<void (llvm::raw_ostream &)>>>::_Vector_impl" }
%"struct.std::_Vector_base<std::function<void (llvm::raw_ostream &)>, std::allocator<std::function<void (llvm::raw_ostream &)>>>::_Vector_impl" = type { %"struct.std::_Vector_base<std::function<void (llvm::raw_ostream &)>, std::allocator<std::function<void (llvm::raw_ostream &)>>>::_Vector_impl_data" }
%"struct.std::_Vector_base<std::function<void (llvm::raw_ostream &)>, std::allocator<std::function<void (llvm::raw_ostream &)>>>::_Vector_impl_data" = type { ptr, ptr, ptr }
%"class.llvm::cl::opt.201" = type { %"class.llvm::cl::Option", %"class.llvm::cl::opt_storage.202", %"class.llvm::cl::parser.56", %"class.std::function.57" }
%"class.llvm::cl::opt_storage.202" = type { ptr, %"struct.llvm::cl::OptionValue.203" }
%"struct.llvm::cl::OptionValue.203" = type { %"struct.llvm::cl::OptionValueBase.204" }
%"struct.llvm::cl::OptionValueBase.204" = type { %"struct.llvm::cl::GenericOptionValue" }

@_ZL13CommonOptions = internal global { %"struct.std::atomic", ptr, ptr } zeroinitializer, align 8

; Function Attrs: mustprogress nounwind uwtable
define linkonce_odr noundef i32 @_ZStanSt12memory_orderSt23__memory_order_modifier(i32 noundef %0, i32 noundef %1) #0 comdat {
  %3 = alloca i32, align 4
  %4 = alloca i32, align 4
  store i32 %0, ptr %3, align 4
  store i32 %1, ptr %4, align 4
  %5 = load i32, ptr %3, align 4
  %6 = load i32, ptr %4, align 4
  %7 = and i32 %5, %6
  ret i32 %7
}

; Function Attrs: mustprogress nounwind uwtable
define linkonce_odr hidden noundef ptr @_ZNKSt6atomicIPvE4loadESt12memory_order(ptr noundef nonnull align 8 dereferenceable(8) %0, i32 noundef %1) #0 comdat align 2 {
  %3 = alloca ptr, align 8
  %4 = alloca i32, align 4
  %5 = alloca i32, align 4
  %6 = alloca ptr, align 8
  %7 = alloca ptr, align 8
  %8 = alloca i32, align 4
  store ptr %0, ptr %7, align 8
  store i32 %1, ptr %8, align 4
  %9 = load ptr, ptr %7, align 8
  %10 = getelementptr inbounds nuw %"struct.std::atomic", ptr %9, i32 0, i32 0
  %11 = load i32, ptr %8, align 4
  store ptr %10, ptr %3, align 8
  store i32 %11, ptr %4, align 4
  %12 = load ptr, ptr %3, align 8
  %13 = load i32, ptr %4, align 4
  %14 = call noundef i32 @_ZStanSt12memory_orderSt23__memory_order_modifier(i32 noundef %13, i32 noundef 65535)
  store i32 %14, ptr %5, align 4
  %15 = load i32, ptr %4, align 4
  switch i32 %15, label %16 [
    i32 1, label %18
    i32 2, label %18
    i32 5, label %20
  ]

16:                                               ; preds = %2
  %17 = load atomic i64, ptr %12 monotonic, align 8
  store i64 %17, ptr %6, align 8
  br label %22

18:                                               ; preds = %2, %2
  %19 = load atomic i64, ptr %12 acquire, align 8
  store i64 %19, ptr %6, align 8
  br label %22

20:                                               ; preds = %2
  %21 = load atomic i64, ptr %12 seq_cst, align 8
  store i64 %21, ptr %6, align 8
  br label %22

22:                                               ; preds = %20, %18, %16
  %23 = load ptr, ptr %6, align 8
  ret ptr %23
}

; Function Attrs: mustprogress nounwind uwtable
define internal noundef nonnull align 8 dereferenceable(1632) ptr @_ZN4llvm13ManagedStaticIN12_GLOBAL__N_124CommandLineCommonOptionsENS_14object_creatorIS2_EENS_14object_deleterIS2_EEEdeEv(ptr noundef nonnull align 8 dereferenceable(24) %0) #0 align 2 {
  %2 = alloca ptr, align 8
  %3 = alloca ptr, align 8
  store ptr %0, ptr %2, align 8
  %4 = load ptr, ptr %2, align 8
  %5 = getelementptr inbounds nuw %"class.llvm::ManagedStaticBase", ptr %4, i32 0, i32 0
  %6 = call noundef ptr @_ZNKSt6atomicIPvE4loadESt12memory_order(ptr noundef nonnull align 8 dereferenceable(8) %5, i32 noundef 2) #5
  store ptr %6, ptr %3, align 8
  %7 = load ptr, ptr %3, align 8
  %8 = icmp ne ptr %7, null
  br i1 %8, label %10, label %9

9:                                                ; preds = %1
  call void @_ZNK4llvm17ManagedStaticBase21RegisterManagedStaticEPFPvvEPFvS1_E(ptr noundef nonnull align 8 dereferenceable(24) %4, ptr noundef @_ZN4llvm14object_creatorIN12_GLOBAL__N_124CommandLineCommonOptionsEE4callEv, ptr noundef @_ZN4llvm14object_deleterIN12_GLOBAL__N_124CommandLineCommonOptionsEE4callEPv)
  br label %10

10:                                               ; preds = %9, %1
  %11 = getelementptr inbounds nuw %"class.llvm::ManagedStaticBase", ptr %4, i32 0, i32 0
  %12 = call noundef ptr @_ZNKSt6atomicIPvE4loadESt12memory_order(ptr noundef nonnull align 8 dereferenceable(8) %11, i32 noundef 0) #5
  ret ptr %12
}

; Function Attrs: mustprogress nounwind uwtable
define internal noundef ptr @_ZN4llvm13ManagedStaticIN12_GLOBAL__N_124CommandLineCommonOptionsENS_14object_creatorIS2_EENS_14object_deleterIS2_EEEptEv(ptr noundef nonnull align 8 dereferenceable(24) %0) #0 align 2 {
  %2 = alloca ptr, align 8
  store ptr %0, ptr %2, align 8
  %3 = load ptr, ptr %2, align 8
  %4 = call noundef nonnull align 8 dereferenceable(1632) ptr @_ZN4llvm13ManagedStaticIN12_GLOBAL__N_124CommandLineCommonOptionsENS_14object_creatorIS2_EENS_14object_deleterIS2_EEEdeEv(ptr noundef nonnull align 8 dereferenceable(24) %3)
  ret ptr %4
}

; Function Attrs: mustprogress nounwind uwtable
define dso_local void @_ZN4llvm2cl16PrintHelpMessageEbb(i1 noundef zeroext %0, i1 noundef zeroext %1) #0 {
  %3 = alloca i8, align 1
  %4 = alloca i8, align 1
  %5 = zext i1 %0 to i8
  store i8 %5, ptr %3, align 1
  %6 = zext i1 %1 to i8
  store i8 %6, ptr %4, align 1
  %7 = load i8, ptr %3, align 1
  %8 = trunc i8 %7 to i1
  br i1 %8, label %15, label %9

9:                                                ; preds = %2
  %10 = load i8, ptr %4, align 1
  %11 = trunc i8 %10 to i1
  br i1 %11, label %15, label %12

12:                                               ; preds = %9
  %13 = call noundef ptr @_ZN4llvm13ManagedStaticIN12_GLOBAL__N_124CommandLineCommonOptionsENS_14object_creatorIS2_EENS_14object_deleterIS2_EEEptEv(ptr noundef nonnull align 8 dereferenceable(24) @_ZL13CommonOptions)
  %14 = getelementptr inbounds nuw %"struct.(anonymous namespace)::CommandLineCommonOptions", ptr %13, i32 0, i32 0
  call void @_ZN12_GLOBAL__N_111HelpPrinter9printHelpEv(ptr noundef nonnull align 8 dereferenceable(9) %14)
  br label %38

15:                                               ; preds = %9, %2
  %16 = load i8, ptr %3, align 1
  %17 = trunc i8 %16 to i1
  br i1 %17, label %24, label %18

18:                                               ; preds = %15
  %19 = load i8, ptr %4, align 1
  %20 = trunc i8 %19 to i1
  br i1 %20, label %21, label %24

21:                                               ; preds = %18
  %22 = call noundef ptr @_ZN4llvm13ManagedStaticIN12_GLOBAL__N_124CommandLineCommonOptionsENS_14object_creatorIS2_EENS_14object_deleterIS2_EEEptEv(ptr noundef nonnull align 8 dereferenceable(24) @_ZL13CommonOptions)
  %23 = getelementptr inbounds nuw %"struct.(anonymous namespace)::CommandLineCommonOptions", ptr %22, i32 0, i32 2
  call void @_ZN12_GLOBAL__N_111HelpPrinter9printHelpEv(ptr noundef nonnull align 8 dereferenceable(9) %23)
  br label %37

24:                                               ; preds = %18, %15
  %25 = load i8, ptr %3, align 1
  %26 = trunc i8 %25 to i1
  br i1 %26, label %27, label %33

27:                                               ; preds = %24
  %28 = load i8, ptr %4, align 1
  %29 = trunc i8 %28 to i1
  br i1 %29, label %33, label %30

30:                                               ; preds = %27
  %31 = call noundef ptr @_ZN4llvm13ManagedStaticIN12_GLOBAL__N_124CommandLineCommonOptionsENS_14object_creatorIS2_EENS_14object_deleterIS2_EEEptEv(ptr noundef nonnull align 8 dereferenceable(24) @_ZL13CommonOptions)
  %32 = getelementptr inbounds nuw %"struct.(anonymous namespace)::CommandLineCommonOptions", ptr %31, i32 0, i32 1
  call void @_ZN12_GLOBAL__N_111HelpPrinter9printHelpEv(ptr noundef nonnull align 8 dereferenceable(9) %32)
  br label %36

33:                                               ; preds = %27, %24
  %34 = call noundef ptr @_ZN4llvm13ManagedStaticIN12_GLOBAL__N_124CommandLineCommonOptionsENS_14object_creatorIS2_EENS_14object_deleterIS2_EEEptEv(ptr noundef nonnull align 8 dereferenceable(24) @_ZL13CommonOptions)
  %35 = getelementptr inbounds nuw %"struct.(anonymous namespace)::CommandLineCommonOptions", ptr %34, i32 0, i32 3
  call void @_ZN12_GLOBAL__N_111HelpPrinter9printHelpEv(ptr noundef nonnull align 8 dereferenceable(9) %35)
  br label %36

36:                                               ; preds = %33, %30
  br label %37

37:                                               ; preds = %36, %21
  br label %38

38:                                               ; preds = %37, %12
  ret void
}