; Function Attrs: mustprogress nounwind uwtable
define dso_local void @_ZN4llvm2cl16PrintHelpMessageEbb(i1 noundef zeroext %0, i1 noundef zeroext %1) local_unnamed_addr #0 {
  %brmerge = or i1 %0, %1
  br i1 %brmerge, label %7, label %3

3:                                                ; preds = %2
  %4 = load atomic i64, ptr @_ZL13CommonOptions acquire, align 8
  %.not.i.i = icmp eq i64 %4, 0
  br i1 %.not.i.i, label %5, label %_ZN4llvm13ManagedStaticIN12_GLOBAL__N_124CommandLineCommonOptionsENS_14object_creatorIS2_EENS_14object_deleterIS2_EEEptEv.exit

5:                                                ; preds = %3
  tail call void @_ZNK4llvm17ManagedStaticBase21RegisterManagedStaticEPFPvvEPFvS1_E(ptr noundef nonnull align 8 dereferenceable(24) @_ZL13CommonOptions, ptr noundef nonnull @_ZN4llvm14object_creatorIN12_GLOBAL__N_124CommandLineCommonOptionsEE4callEv, ptr noundef nonnull @_ZN4llvm14object_deleterIN12_GLOBAL__N_124CommandLineCommonOptionsEE4callEPv) #25
  br label %_ZN4llvm13ManagedStaticIN12_GLOBAL__N_124CommandLineCommonOptionsENS_14object_creatorIS2_EENS_14object_deleterIS2_EEEptEv.exit

_ZN4llvm13ManagedStaticIN12_GLOBAL__N_124CommandLineCommonOptionsENS_14object_creatorIS2_EENS_14object_deleterIS2_EEEptEv.exit: ; preds = %3, %5
  %6 = load atomic i64, ptr @_ZL13CommonOptions monotonic, align 8
  %.0.i2.i.i = inttoptr i64 %6 to ptr
  br label %23

7:                                                ; preds = %2
  %.not = xor i1 %1, true
  %brmerge6 = or i1 %0, %.not
  br i1 %brmerge6, label %13, label %8

8:                                                ; preds = %7
  %9 = load atomic i64, ptr @_ZL13CommonOptions acquire, align 8
  %.not.i.i9 = icmp eq i64 %9, 0
  br i1 %.not.i.i9, label %10, label %_ZN4llvm13ManagedStaticIN12_GLOBAL__N_124CommandLineCommonOptionsENS_14object_creatorIS2_EENS_14object_deleterIS2_EEEptEv.exit11

10:                                               ; preds = %8
  tail call void @_ZNK4llvm17ManagedStaticBase21RegisterManagedStaticEPFPvvEPFvS1_E(ptr noundef nonnull align 8 dereferenceable(24) @_ZL13CommonOptions, ptr noundef nonnull @_ZN4llvm14object_creatorIN12_GLOBAL__N_124CommandLineCommonOptionsEE4callEv, ptr noundef nonnull @_ZN4llvm14object_deleterIN12_GLOBAL__N_124CommandLineCommonOptionsEE4callEPv) #25
  br label %_ZN4llvm13ManagedStaticIN12_GLOBAL__N_124CommandLineCommonOptionsENS_14object_creatorIS2_EENS_14object_deleterIS2_EEEptEv.exit11

_ZN4llvm13ManagedStaticIN12_GLOBAL__N_124CommandLineCommonOptionsENS_14object_creatorIS2_EENS_14object_deleterIS2_EEEptEv.exit11: ; preds = %8, %10
  %11 = load atomic i64, ptr @_ZL13CommonOptions monotonic, align 8
  %.0.i2.i.i10 = inttoptr i64 %11 to ptr
  %12 = getelementptr inbounds nuw i8, ptr %.0.i2.i.i10, i64 32
  br label %23

13:                                               ; preds = %7
  %.not7 = xor i1 %0, true
  %brmerge8 = or i1 %1, %.not7
  %14 = load atomic i64, ptr @_ZL13CommonOptions acquire, align 8
  %.not.i.i15 = icmp eq i64 %14, 0
  br i1 %brmerge8, label %19, label %15

15:                                               ; preds = %13
  br i1 %.not.i.i15, label %16, label %_ZN4llvm13ManagedStaticIN12_GLOBAL__N_124CommandLineCommonOptionsENS_14object_creatorIS2_EENS_14object_deleterIS2_EEEptEv.exit14

16:                                               ; preds = %15
  tail call void @_ZNK4llvm17ManagedStaticBase21RegisterManagedStaticEPFPvvEPFvS1_E(ptr noundef nonnull align 8 dereferenceable(24) @_ZL13CommonOptions, ptr noundef nonnull @_ZN4llvm14object_creatorIN12_GLOBAL__N_124CommandLineCommonOptionsEE4callEv, ptr noundef nonnull @_ZN4llvm14object_deleterIN12_GLOBAL__N_124CommandLineCommonOptionsEE4callEPv) #25
  br label %_ZN4llvm13ManagedStaticIN12_GLOBAL__N_124CommandLineCommonOptionsENS_14object_creatorIS2_EENS_14object_deleterIS2_EEEptEv.exit14

_ZN4llvm13ManagedStaticIN12_GLOBAL__N_124CommandLineCommonOptionsENS_14object_creatorIS2_EENS_14object_deleterIS2_EEEptEv.exit14: ; preds = %15, %16
  %17 = load atomic i64, ptr @_ZL13CommonOptions monotonic, align 8
  %.0.i2.i.i13 = inttoptr i64 %17 to ptr
  %18 = getelementptr inbounds nuw i8, ptr %.0.i2.i.i13, i64 16
  br label %23

19:                                               ; preds = %13
  br i1 %.not.i.i15, label %20, label %_ZN4llvm13ManagedStaticIN12_GLOBAL__N_124CommandLineCommonOptionsENS_14object_creatorIS2_EENS_14object_deleterIS2_EEEptEv.exit17

20:                                               ; preds = %19
  tail call void @_ZNK4llvm17ManagedStaticBase21RegisterManagedStaticEPFPvvEPFvS1_E(ptr noundef nonnull align 8 dereferenceable(24) @_ZL13CommonOptions, ptr noundef nonnull @_ZN4llvm14object_creatorIN12_GLOBAL__N_124CommandLineCommonOptionsEE4callEv, ptr noundef nonnull @_ZN4llvm14object_deleterIN12_GLOBAL__N_124CommandLineCommonOptionsEE4callEPv) #25
  br label %_ZN4llvm13ManagedStaticIN12_GLOBAL__N_124CommandLineCommonOptionsENS_14object_creatorIS2_EENS_14object_deleterIS2_EEEptEv.exit17

_ZN4llvm13ManagedStaticIN12_GLOBAL__N_124CommandLineCommonOptionsENS_14object_creatorIS2_EENS_14object_deleterIS2_EEEptEv.exit17: ; preds = %19, %20
  %21 = load atomic i64, ptr @_ZL13CommonOptions monotonic, align 8
  %.0.i2.i.i16 = inttoptr i64 %21 to ptr
  %22 = getelementptr inbounds nuw i8, ptr %.0.i2.i.i16, i64 48
  br label %23

23:                                               ; preds = %_ZN4llvm13ManagedStaticIN12_GLOBAL__N_124CommandLineCommonOptionsENS_14object_creatorIS2_EENS_14object_deleterIS2_EEEptEv.exit11, %_ZN4llvm13ManagedStaticIN12_GLOBAL__N_124CommandLineCommonOptionsENS_14object_creatorIS2_EENS_14object_deleterIS2_EEEptEv.exit17, %_ZN4llvm13ManagedStaticIN12_GLOBAL__N_124CommandLineCommonOptionsENS_14object_creatorIS2_EENS_14object_deleterIS2_EEEptEv.exit14, %_ZN4llvm13ManagedStaticIN12_GLOBAL__N_124CommandLineCommonOptionsENS_14object_creatorIS2_EENS_14object_deleterIS2_EEEptEv.exit
  %.sink = phi ptr [ %12, %_ZN4llvm13ManagedStaticIN12_GLOBAL__N_124CommandLineCommonOptionsENS_14object_creatorIS2_EENS_14object_deleterIS2_EEEptEv.exit11 ], [ %22, %_ZN4llvm13ManagedStaticIN12_GLOBAL__N_124CommandLineCommonOptionsENS_14object_creatorIS2_EENS_14object_deleterIS2_EEEptEv.exit17 ], [ %18, %_ZN4llvm13ManagedStaticIN12_GLOBAL__N_124CommandLineCommonOptionsENS_14object_creatorIS2_EENS_14object_deleterIS2_EEEptEv.exit14 ], [ %.0.i2.i.i, %_ZN4llvm13ManagedStaticIN12_GLOBAL__N_124CommandLineCommonOptionsENS_14object_creatorIS2_EENS_14object_deleterIS2_EEEptEv.exit ]
  tail call fastcc void @_ZN12_GLOBAL__N_111HelpPrinter9printHelpEv(ptr noundef nonnull align 8 dereferenceable(9) %.sink)
  ret void
}